target datalayout = "e-m:e-p270:32:32-p271:32:32-p272:64:64-i64:64-i128:128-f80:128-n8:16:32:64-S128"
target triple = "x86_64-pc-linux-gnu"

; Function Attrs: nounwind uwtable
define zeroext i8 @uriHexdigToIntA(i8 noundef signext %0) #0 {
  %2 = alloca i8, align 1
  %3 = alloca i8, align 1
  store i8 %0, ptr %3, align 1, !tbaa !30
  %4 = load i8, ptr %3, align 1, !tbaa !30
  %5 = sext i8 %4 to i32
  switch i32 %5, label %24 [
    i32 48, label %6
    i32 49, label %6
    i32 50, label %6
    i32 51, label %6
    i32 52, label %6
    i32 53, label %6
    i32 54, label %6
    i32 55, label %6
    i32 56, label %6
    i32 57, label %6
    i32 97, label %12
    i32 98, label %12
    i32 99, label %12
    i32 100, label %12
    i32 101, label %12
    i32 102, label %12
    i32 65, label %18
    i32 66, label %18
    i32 67, label %18
    i32 68, label %18
    i32 69, label %18
    i32 70, label %18
  ]

6:                                                ; preds = %1, %1, %1, %1, %1, %1, %1, %1, %1, %1
  %7 = load i8, ptr %3, align 1, !tbaa !30
  %8 = sext i8 %7 to i32
  %9 = add nsw i32 9, %8
  %10 = sub nsw i32 %9, 57
  %11 = trunc i32 %10 to i8
  store i8 %11, ptr %2, align 1
  br label %25

12:                                               ; preds = %1, %1, %1, %1, %1, %1
  %13 = load i8, ptr %3, align 1, !tbaa !30
  %14 = sext i8 %13 to i32
  %15 = add nsw i32 15, %14
  %16 = sub nsw i32 %15, 102
  %17 = trunc i32 %16 to i8
  store i8 %17, ptr %2, align 1
  br label %25

18:                                               ; preds = %1, %1, %1, %1, %1, %1
  %19 = load i8, ptr %3, align 1, !tbaa !30
  %20 = sext i8 %19 to i32
  %21 = add nsw i32 15, %20
  %22 = sub nsw i32 %21, 70
  %23 = trunc i32 %22 to i8
  store i8 %23, ptr %2, align 1
  br label %25

24:                                               ; preds = %1
  store i8 0, ptr %2, align 1
  br label %25

25:                                               ; preds = %24, %18, %12, %6
  %26 = load i8, ptr %2, align 1
  ret i8 %26
}